(dp0
S'K7'
p1
S'Long'
p2
sS'K5'
p3
g2
sS'K8'
p4
g2
sS'G7'
p5
S'Short'
p6
sS'I8'
p7
g2
sS'G4'
p8
g2
sS'I3'
p9
g2
sS'I2'
p10
g2
sS'G8'
p11
g6
sS'C8'
p12
g2
sS'E1'
p13
g2
sS'C5'
p14
g2
sS'C4'
p15
g6
sS'L6'
p16
g2
sS'L4'
p17
g2
sS'L2'
p18
g2
sS'L3'
p19
g2
sS'F4'
p20
g2
sS'F1'
p21
g6
sS'F3'
p22
g2
sS'J8'
p23
g2
sS'F5'
p24
g2
sS'F8'
p25
g2
sS'C7'
p26
g2
sS'J1'
p27
g2
sS'J3'
p28
g2
sS'J5'
p29
g6
sS'D7'
p30
g2
sS'D4'
p31
g2
sS'D2'
p32
g2
s.